; Function Attrs: mustprogress nounwind uwtable
define internal fastcc void @_ZL16Expand2AddrUndefRN4llvm19MachineInstrBuilderERKNS_11MCInstrDescE(ptr noundef nonnull readonly align 8 captures(none) dereferenceable(16) %0, ptr noundef nonnull align 8 dereferenceable(32) %1) unnamed_addr #1 {
  %3 = alloca %"class.llvm::MachineOperand", align 8
  %4 = alloca %"class.llvm::MachineOperand", align 8
  %5 = getelementptr inbounds nuw i8, ptr %0, i64 8
  %6 = load ptr, ptr %5, align 8
  %7 = getelementptr inbounds nuw i8, ptr %6, i64 32
  %8 = load ptr, ptr %7, align 8
  %9 = getelementptr inbounds nuw i8, ptr %8, i64 4
  %10 = load i32, ptr %9, align 4
  tail call void @_ZN4llvm12MachineInstr7setDescERKNS_11MCInstrDescE(ptr noundef nonnull align 8 dereferenceable(70) %6, ptr noundef nonnull align 8 dereferenceable(32) %1) #29
  call void @llvm.lifetime.start.p0(i64 32, ptr nonnull %4)
  %11 = load ptr, ptr %5, align 8
  %12 = load ptr, ptr %0, align 8
  %13 = getelementptr inbounds nuw i8, ptr %4, i64 8
  store ptr null, ptr %13, align 8, !alias.scope !419
  %14 = getelementptr inbounds nuw i8, ptr %4, i64 4
  store i32 %10, ptr %14, align 4, !alias.scope !419
  %15 = getelementptr inbounds nuw i8, ptr %4, i64 16
  call void @llvm.memset.p0.i64(ptr noundef nonnull align 8 dereferenceable(16) %15, i8 0, i64 16, i1 false), !alias.scope !419
  store i32 268435456, ptr %4, align 8, !alias.scope !419
  call void @_ZN4llvm12MachineInstr10addOperandERNS_15MachineFunctionERKNS_14MachineOperandE(ptr noundef nonnull align 8 dereferenceable(70) %11, ptr noundef nonnull align 8 dereferenceable(1041) %12, ptr noundef nonnull align 8 dereferenceable(32) %4) #29
  call void @llvm.lifetime.end.p0(i64 32, ptr nonnull %4)
  call void @llvm.lifetime.start.p0(i64 32, ptr nonnull %3)
  %16 = load ptr, ptr %5, align 8
  %17 = load ptr, ptr %0, align 8
  %18 = getelementptr inbounds nuw i8, ptr %3, i64 8
  store ptr null, ptr %18, align 8, !alias.scope !422
  %19 = getelementptr inbounds nuw i8, ptr %3, i64 4
  store i32 %10, ptr %19, align 4, !alias.scope !422
  %20 = getelementptr inbounds nuw i8, ptr %3, i64 16
  call void @llvm.memset.p0.i64(ptr noundef nonnull align 8 dereferenceable(16) %20, i8 0, i64 16, i1 false), !alias.scope !422
  store i32 268435456, ptr %3, align 8, !alias.scope !422
  call void @_ZN4llvm12MachineInstr10addOperandERNS_15MachineFunctionERKNS_14MachineOperandE(ptr noundef nonnull align 8 dereferenceable(70) %16, ptr noundef nonnull align 8 dereferenceable(1041) %17, ptr noundef nonnull align 8 dereferenceable(32) %3) #29
  call void @llvm.lifetime.end.p0(i64 32, ptr nonnull %3)
  ret void
}